target datalayout = "e-m:e-p270:32:32-p271:32:32-p272:64:64-i64:64-i128:128-f80:128-n8:16:32:64-S128"
target triple = "x86_64-pc-linux-gnu"

%struct.Mem_Flex_t_ = type { i32, ptr, ptr, i32, i32, i32, ptr, i32, i32 }

; Function Attrs: nounwind uwtable
define void @Mem_FlexRestart(ptr noundef %0) #0 {
  %2 = alloca ptr, align 8
  %3 = alloca i32, align 4
  %4 = alloca i32, align 4
  store ptr %0, ptr %2, align 8, !tbaa !27
  call void @llvm.lifetime.start.p0(i64 4, ptr %3) #7
  %5 = load ptr, ptr %2, align 8, !tbaa !27
  %6 = getelementptr inbounds nuw %struct.Mem_Flex_t_, ptr %5, i32 0, i32 5
  %7 = load i32, ptr %6, align 8, !tbaa !31
  %8 = icmp eq i32 %7, 0
  br i1 %8, label %9, label %10

9:                                                ; preds = %1
  store i32 1, ptr %4, align 4
  br label %74

10:                                               ; preds = %1
  store i32 1, ptr %3, align 4, !tbaa !3
  br label %11

11:                                               ; preds = %42, %10
  %12 = load i32, ptr %3, align 4, !tbaa !3
  %13 = load ptr, ptr %2, align 8, !tbaa !27
  %14 = getelementptr inbounds nuw %struct.Mem_Flex_t_, ptr %13, i32 0, i32 5
  %15 = load i32, ptr %14, align 8, !tbaa !31
  %16 = icmp slt i32 %12, %15
  br i1 %16, label %17, label %45

17:                                               ; preds = %11
  %18 = load ptr, ptr %2, align 8, !tbaa !27
  %19 = getelementptr inbounds nuw %struct.Mem_Flex_t_, ptr %18, i32 0, i32 6
  %20 = load ptr, ptr %19, align 8, !tbaa !35
  %21 = load i32, ptr %3, align 4, !tbaa !3
  %22 = sext i32 %21 to i64
  %23 = getelementptr inbounds ptr, ptr %20, i64 %22
  %24 = load ptr, ptr %23, align 8, !tbaa !24
  %25 = icmp ne ptr %24, null
  br i1 %25, label %26, label %40

26:                                               ; preds = %17
  %27 = load ptr, ptr %2, align 8, !tbaa !27
  %28 = getelementptr inbounds nuw %struct.Mem_Flex_t_, ptr %27, i32 0, i32 6
  %29 = load ptr, ptr %28, align 8, !tbaa !35
  %30 = load i32, ptr %3, align 4, !tbaa !3
  %31 = sext i32 %30 to i64
  %32 = getelementptr inbounds ptr, ptr %29, i64 %31
  %33 = load ptr, ptr %32, align 8, !tbaa !24
  call void @free(ptr noundef %33) #7
  %34 = load ptr, ptr %2, align 8, !tbaa !27
  %35 = getelementptr inbounds nuw %struct.Mem_Flex_t_, ptr %34, i32 0, i32 6
  %36 = load ptr, ptr %35, align 8, !tbaa !35
  %37 = load i32, ptr %3, align 4, !tbaa !3
  %38 = sext i32 %37 to i64
  %39 = getelementptr inbounds ptr, ptr %36, i64 %38
  store ptr null, ptr %39, align 8, !tbaa !24
  br label %41

40:                                               ; preds = %17
  br label %41

41:                                               ; preds = %40, %26
  br label %42

42:                                               ; preds = %41
  %43 = load i32, ptr %3, align 4, !tbaa !3
  %44 = add nsw i32 %43, 1
  store i32 %44, ptr %3, align 4, !tbaa !3
  br label %11, !llvm.loop !43

45:                                               ; preds = %11
  %46 = load ptr, ptr %2, align 8, !tbaa !27
  %47 = getelementptr inbounds nuw %struct.Mem_Flex_t_, ptr %46, i32 0, i32 5
  store i32 1, ptr %47, align 8, !tbaa !31
  %48 = load ptr, ptr %2, align 8, !tbaa !27
  %49 = getelementptr inbounds nuw %struct.Mem_Flex_t_, ptr %48, i32 0, i32 3
  %50 = load i32, ptr %49, align 8, !tbaa !29
  %51 = load ptr, ptr %2, align 8, !tbaa !27
  %52 = getelementptr inbounds nuw %struct.Mem_Flex_t_, ptr %51, i32 0, i32 8
  store i32 %50, ptr %52, align 4, !tbaa !34
  %53 = load ptr, ptr %2, align 8, !tbaa !27
  %54 = getelementptr inbounds nuw %struct.Mem_Flex_t_, ptr %53, i32 0, i32 6
  %55 = load ptr, ptr %54, align 8, !tbaa !35
  %56 = getelementptr inbounds ptr, ptr %55, i64 0
  %57 = load ptr, ptr %56, align 8, !tbaa !24
  %58 = load ptr, ptr %2, align 8, !tbaa !27
  %59 = getelementptr inbounds nuw %struct.Mem_Flex_t_, ptr %58, i32 0, i32 1
  store ptr %57, ptr %59, align 8, !tbaa !40
  %60 = load ptr, ptr %2, align 8, !tbaa !27
  %61 = getelementptr inbounds nuw %struct.Mem_Flex_t_, ptr %60, i32 0, i32 1
  %62 = load ptr, ptr %61, align 8, !tbaa !40
  %63 = load ptr, ptr %2, align 8, !tbaa !27
  %64 = getelementptr inbounds nuw %struct.Mem_Flex_t_, ptr %63, i32 0, i32 3
  %65 = load i32, ptr %64, align 8, !tbaa !29
  %66 = sext i32 %65 to i64
  %67 = getelementptr inbounds i8, ptr %62, i64 %66
  %68 = load ptr, ptr %2, align 8, !tbaa !27
  %69 = getelementptr inbounds nuw %struct.Mem_Flex_t_, ptr %68, i32 0, i32 2
  store ptr %67, ptr %69, align 8, !tbaa !41
  %70 = load ptr, ptr %2, align 8, !tbaa !27
  %71 = getelementptr inbounds nuw %struct.Mem_Flex_t_, ptr %70, i32 0, i32 0
  store i32 0, ptr %71, align 8, !tbaa !32
  %72 = load ptr, ptr %2, align 8, !tbaa !27
  %73 = getelementptr inbounds nuw %struct.Mem_Flex_t_, ptr %72, i32 0, i32 7
  store i32 0, ptr %73, align 8, !tbaa !33
  store i32 0, ptr %4, align 4
  br label %74

74:                                               ; preds = %45, %9
  call void @llvm.lifetime.end.p0(i64 4, ptr %3) #7
  %75 = load i32, ptr %4, align 4
  switch i32 %75, label %77 [
    i32 0, label %76
    i32 1, label %76
  ]

76:                                               ; preds = %74, %74
  ret void

77:                                               ; preds = %74
  unreachable
}