; Function Attrs: nounwind uwtable
define void @Mem_FlexRestart(ptr noundef captures(none) %0) local_unnamed_addr #2 {
  %2 = getelementptr inbounds nuw i8, ptr %0, i64 32
  %3 = load i32, ptr %2, align 8, !tbaa !22
  %4 = icmp eq i32 %3, 0
  br i1 %4, label %29, label %.preheader

.preheader:                                       ; preds = %1
  %5 = icmp sgt i32 %3, 1
  %6 = getelementptr inbounds nuw i8, ptr %0, i64 40
  %.pre = load ptr, ptr %6, align 8, !tbaa !24
  br i1 %5, label %.lr.ph, label %._crit_edge

.lr.ph:                                           ; preds = %.preheader, %14
  %7 = phi i32 [ %15, %14 ], [ %3, %.preheader ]
  %8 = phi ptr [ %16, %14 ], [ %.pre, %.preheader ]
  %indvars.iv = phi i64 [ %indvars.iv.next, %14 ], [ 1, %.preheader ]
  %9 = getelementptr inbounds nuw ptr, ptr %8, i64 %indvars.iv
  %10 = load ptr, ptr %9, align 8, !tbaa !19
  %.not = icmp eq ptr %10, null
  br i1 %.not, label %14, label %11

11:                                               ; preds = %.lr.ph
  tail call void @free(ptr noundef nonnull %10) #15
  %12 = load ptr, ptr %6, align 8, !tbaa !24
  %13 = getelementptr inbounds nuw ptr, ptr %12, i64 %indvars.iv
  store ptr null, ptr %13, align 8, !tbaa !19
  %.pre22 = load i32, ptr %2, align 8, !tbaa !22
  br label %14

14:                                               ; preds = %11, %.lr.ph
  %15 = phi i32 [ %.pre22, %11 ], [ %7, %.lr.ph ]
  %16 = phi ptr [ %12, %11 ], [ %8, %.lr.ph ]
  %indvars.iv.next = add nuw nsw i64 %indvars.iv, 1
  %17 = sext i32 %15 to i64
  %18 = icmp slt i64 %indvars.iv.next, %17
  br i1 %18, label %.lr.ph, label %._crit_edge, !llvm.loop !38

._crit_edge:                                      ; preds = %14, %.preheader
  %19 = phi ptr [ %.pre, %.preheader ], [ %16, %14 ]
  store i32 1, ptr %2, align 8, !tbaa !22
  %20 = getelementptr inbounds nuw i8, ptr %0, i64 24
  %21 = load i32, ptr %20, align 8, !tbaa !26
  %22 = getelementptr inbounds nuw i8, ptr %0, i64 52
  store i32 %21, ptr %22, align 4, !tbaa !29
  %23 = load ptr, ptr %19, align 8, !tbaa !19
  %24 = getelementptr inbounds nuw i8, ptr %0, i64 8
  store ptr %23, ptr %24, align 8, !tbaa !36
  %25 = sext i32 %21 to i64
  %26 = getelementptr inbounds i8, ptr %23, i64 %25
  %27 = getelementptr inbounds nuw i8, ptr %0, i64 16
  store ptr %26, ptr %27, align 8, !tbaa !37
  store i32 0, ptr %0, align 8, !tbaa !27
  %28 = getelementptr inbounds nuw i8, ptr %0, i64 48
  store i32 0, ptr %28, align 8, !tbaa !28
  br label %29

29:                                               ; preds = %1, %._crit_edge
  ret void
}